#include <math.h>
#include <stdio.h>
#include <stdlib.h>
#include <string.h>

int main()
{
	int a,b,c,d,e,f;
	scanf("%d",&a);
    b=a/10000;
	c=(a-10000*b)/1000;
	d=(a-10000*b-1000*c)/100;
	e=(a-10000*b-1000*c-100*d)/10;
	f=a-10000*b-1000*c-100*d-10*e;
	if(b==1)
	{
	printf("%d%d%d%d%d%d",f,e,d,c,b);
	}
	else
	{
		if(c>=1)
		{printf("%d%d%d%d",f,e,d,c);
		}
		else
		{
			if(d>=1)
			{
				printf("%d%d%d",f,e,d);
			}
			else
			{
				if(e>=1)
				{
					printf("%d%d",f,e);
				}
				else
				{
					printf("%d",f);
				}
			}
		}
	}
	return 0;
}